; Function Attrs: mustprogress nofree norecurse nosync nounwind willreturn memory(read, inaccessiblemem: none) uwtable
define noundef float @_Z14dd_pme_f_ratioPK12gmx_domdec_t(ptr noundef readonly captures(none) %0) local_unnamed_addr #0 {
  %2 = getelementptr inbounds nuw i8, ptr %0, i64 320
  %3 = load ptr, ptr %2, align 8
  %4 = getelementptr inbounds nuw i8, ptr %3, i64 2056
  %5 = load ptr, ptr %4, align 8
  %6 = getelementptr inbounds nuw i8, ptr %5, i64 48
  %7 = load float, ptr %6, align 8
  %8 = fcmp ogt float %7, 0.000000e+00
  br i1 %8, label %9, label %17

9:                                                ; preds = %1
  %10 = getelementptr inbounds nuw i8, ptr %3, i64 2172
  %11 = load i32, ptr %10, align 4
  %12 = icmp sgt i32 %11, 0
  br i1 %12, label %13, label %17

13:                                               ; preds = %9
  %14 = getelementptr inbounds nuw i8, ptr %5, i64 52
  %15 = load float, ptr %14, align 4
  %16 = fdiv float %15, %7
  br label %17

17:                                               ; preds = %1, %9, %13
  %.0 = phi float [ %16, %13 ], [ -1.000000e+00, %9 ], [ -1.000000e+00, %1 ]
  ret float %.0
}